target datalayout = "e-m:e-p270:32:32-p271:32:32-p272:64:64-i64:64-i128:128-f80:128-n8:16:32:64-S128"
target triple = "x86_64-pc-linux-gnu"

%struct.FilterParams = type { i32, double, ptr, ptr, ptr }

; Function Attrs: nounwind uwtable
define internal void @blend_phoenix_9bit(ptr noundef %0, i64 noundef %1, ptr noundef %2, i64 noundef %3, ptr noundef %4, i64 noundef %5, i64 noundef %6, i64 noundef %7, ptr noundef %8, ptr noundef %9) #0 {
  %11 = alloca ptr, align 8
  %12 = alloca i64, align 8
  %13 = alloca ptr, align 8
  %14 = alloca i64, align 8
  %15 = alloca ptr, align 8
  %16 = alloca i64, align 8
  %17 = alloca i64, align 8
  %18 = alloca i64, align 8
  %19 = alloca ptr, align 8
  %20 = alloca ptr, align 8
  %21 = alloca ptr, align 8
  %22 = alloca ptr, align 8
  %23 = alloca ptr, align 8
  %24 = alloca float, align 4
  %25 = alloca i32, align 4
  %26 = alloca i32, align 4
  %27 = alloca i32, align 4
  store ptr %0, ptr %11, align 8, !tbaa !46
  store i64 %1, ptr %12, align 8, !tbaa !88
  store ptr %2, ptr %13, align 8, !tbaa !46
  store i64 %3, ptr %14, align 8, !tbaa !88
  store ptr %4, ptr %15, align 8, !tbaa !46
  store i64 %5, ptr %16, align 8, !tbaa !88
  store i64 %6, ptr %17, align 8, !tbaa !88
  store i64 %7, ptr %18, align 8, !tbaa !88
  store ptr %8, ptr %19, align 8, !tbaa !77
  store ptr %9, ptr %20, align 8, !tbaa !89
  call void @llvm.lifetime.start.p0(i64 8, ptr %21) #12
  %28 = load ptr, ptr %11, align 8, !tbaa !46
  store ptr %28, ptr %21, align 8, !tbaa !103
  call void @llvm.lifetime.start.p0(i64 8, ptr %22) #12
  %29 = load ptr, ptr %13, align 8, !tbaa !46
  store ptr %29, ptr %22, align 8, !tbaa !103
  call void @llvm.lifetime.start.p0(i64 8, ptr %23) #12
  %30 = load ptr, ptr %15, align 8, !tbaa !46
  store ptr %30, ptr %23, align 8, !tbaa !103
  call void @llvm.lifetime.start.p0(i64 4, ptr %24) #12
  %31 = load ptr, ptr %19, align 8, !tbaa !77
  %32 = getelementptr inbounds nuw %struct.FilterParams, ptr %31, i32 0, i32 1
  %33 = load double, ptr %32, align 8, !tbaa !82
  %34 = fptrunc nsz double %33 to float
  store float %34, ptr %24, align 4, !tbaa !99
  %35 = load i64, ptr %16, align 8, !tbaa !88
  %36 = udiv i64 %35, 2
  store i64 %36, ptr %16, align 8, !tbaa !88
  %37 = load i64, ptr %12, align 8, !tbaa !88
  %38 = udiv i64 %37, 2
  store i64 %38, ptr %12, align 8, !tbaa !88
  %39 = load i64, ptr %14, align 8, !tbaa !88
  %40 = udiv i64 %39, 2
  store i64 %40, ptr %14, align 8, !tbaa !88
  call void @llvm.lifetime.start.p0(i64 4, ptr %25) #12
  store i32 0, ptr %25, align 4, !tbaa !37
  br label %41

41:                                               ; preds = %150, %10
  %42 = load i32, ptr %25, align 4, !tbaa !37
  %43 = sext i32 %42 to i64
  %44 = load i64, ptr %18, align 8, !tbaa !88
  %45 = icmp slt i64 %43, %44
  br i1 %45, label %47, label %46

46:                                               ; preds = %41
  store i32 2, ptr %26, align 4
  call void @llvm.lifetime.end.p0(i64 4, ptr %25) #12
  br label %153

47:                                               ; preds = %41
  call void @llvm.lifetime.start.p0(i64 4, ptr %27) #12
  store i32 0, ptr %27, align 4, !tbaa !37
  br label %48

48:                                               ; preds = %137, %47
  %49 = load i32, ptr %27, align 4, !tbaa !37
  %50 = sext i32 %49 to i64
  %51 = load i64, ptr %17, align 8, !tbaa !88
  %52 = icmp slt i64 %50, %51
  br i1 %52, label %54, label %53

53:                                               ; preds = %48
  store i32 5, ptr %26, align 4
  call void @llvm.lifetime.end.p0(i64 4, ptr %27) #12
  br label %140

54:                                               ; preds = %48
  %55 = load ptr, ptr %21, align 8, !tbaa !103
  %56 = load i32, ptr %27, align 4, !tbaa !37
  %57 = sext i32 %56 to i64
  %58 = getelementptr inbounds i16, ptr %55, i64 %57
  %59 = load i16, ptr %58, align 2, !tbaa !105
  %60 = zext i16 %59 to i32
  %61 = sitofp i32 %60 to float
  %62 = load ptr, ptr %21, align 8, !tbaa !103
  %63 = load i32, ptr %27, align 4, !tbaa !37
  %64 = sext i32 %63 to i64
  %65 = getelementptr inbounds i16, ptr %62, i64 %64
  %66 = load i16, ptr %65, align 2, !tbaa !105
  %67 = zext i16 %66 to i32
  %68 = load ptr, ptr %22, align 8, !tbaa !103
  %69 = load i32, ptr %27, align 4, !tbaa !37
  %70 = sext i32 %69 to i64
  %71 = getelementptr inbounds i16, ptr %68, i64 %70
  %72 = load i16, ptr %71, align 2, !tbaa !105
  %73 = zext i16 %72 to i32
  %74 = icmp sgt i32 %67, %73
  br i1 %74, label %75, label %82

75:                                               ; preds = %54
  %76 = load ptr, ptr %22, align 8, !tbaa !103
  %77 = load i32, ptr %27, align 4, !tbaa !37
  %78 = sext i32 %77 to i64
  %79 = getelementptr inbounds i16, ptr %76, i64 %78
  %80 = load i16, ptr %79, align 2, !tbaa !105
  %81 = zext i16 %80 to i32
  br label %89

82:                                               ; preds = %54
  %83 = load ptr, ptr %21, align 8, !tbaa !103
  %84 = load i32, ptr %27, align 4, !tbaa !37
  %85 = sext i32 %84 to i64
  %86 = getelementptr inbounds i16, ptr %83, i64 %85
  %87 = load i16, ptr %86, align 2, !tbaa !105
  %88 = zext i16 %87 to i32
  br label %89

89:                                               ; preds = %82, %75
  %90 = phi i32 [ %81, %75 ], [ %88, %82 ]
  %91 = load ptr, ptr %21, align 8, !tbaa !103
  %92 = load i32, ptr %27, align 4, !tbaa !37
  %93 = sext i32 %92 to i64
  %94 = getelementptr inbounds i16, ptr %91, i64 %93
  %95 = load i16, ptr %94, align 2, !tbaa !105
  %96 = zext i16 %95 to i32
  %97 = load ptr, ptr %22, align 8, !tbaa !103
  %98 = load i32, ptr %27, align 4, !tbaa !37
  %99 = sext i32 %98 to i64
  %100 = getelementptr inbounds i16, ptr %97, i64 %99
  %101 = load i16, ptr %100, align 2, !tbaa !105
  %102 = zext i16 %101 to i32
  %103 = icmp sgt i32 %96, %102
  br i1 %103, label %104, label %111

104:                                              ; preds = %89
  %105 = load ptr, ptr %21, align 8, !tbaa !103
  %106 = load i32, ptr %27, align 4, !tbaa !37
  %107 = sext i32 %106 to i64
  %108 = getelementptr inbounds i16, ptr %105, i64 %107
  %109 = load i16, ptr %108, align 2, !tbaa !105
  %110 = zext i16 %109 to i32
  br label %118

111:                                              ; preds = %89
  %112 = load ptr, ptr %22, align 8, !tbaa !103
  %113 = load i32, ptr %27, align 4, !tbaa !37
  %114 = sext i32 %113 to i64
  %115 = getelementptr inbounds i16, ptr %112, i64 %114
  %116 = load i16, ptr %115, align 2, !tbaa !105
  %117 = zext i16 %116 to i32
  br label %118

118:                                              ; preds = %111, %104
  %119 = phi i32 [ %110, %104 ], [ %117, %111 ]
  %120 = sub nsw i32 %90, %119
  %121 = add nsw i32 %120, 511
  %122 = load ptr, ptr %21, align 8, !tbaa !103
  %123 = load i32, ptr %27, align 4, !tbaa !37
  %124 = sext i32 %123 to i64
  %125 = getelementptr inbounds i16, ptr %122, i64 %124
  %126 = load i16, ptr %125, align 2, !tbaa !105
  %127 = zext i16 %126 to i32
  %128 = sub nsw i32 %121, %127
  %129 = sitofp i32 %128 to float
  %130 = load float, ptr %24, align 4, !tbaa !99
  %131 = call nsz float @llvm.fmuladd.f32(float %129, float %130, float %61)
  %132 = fptoui float %131 to i16
  %133 = load ptr, ptr %23, align 8, !tbaa !103
  %134 = load i32, ptr %27, align 4, !tbaa !37
  %135 = sext i32 %134 to i64
  %136 = getelementptr inbounds i16, ptr %133, i64 %135
  store i16 %132, ptr %136, align 2, !tbaa !105
  br label %137

137:                                              ; preds = %118
  %138 = load i32, ptr %27, align 4, !tbaa !37
  %139 = add nsw i32 %138, 1
  store i32 %139, ptr %27, align 4, !tbaa !37
  br label %48, !llvm.loop !242

140:                                              ; preds = %53
  %141 = load i64, ptr %16, align 8, !tbaa !88
  %142 = load ptr, ptr %23, align 8, !tbaa !103
  %143 = getelementptr inbounds i16, ptr %142, i64 %141
  store ptr %143, ptr %23, align 8, !tbaa !103
  %144 = load i64, ptr %12, align 8, !tbaa !88
  %145 = load ptr, ptr %21, align 8, !tbaa !103
  %146 = getelementptr inbounds i16, ptr %145, i64 %144
  store ptr %146, ptr %21, align 8, !tbaa !103
  %147 = load i64, ptr %14, align 8, !tbaa !88
  %148 = load ptr, ptr %22, align 8, !tbaa !103
  %149 = getelementptr inbounds i16, ptr %148, i64 %147
  store ptr %149, ptr %22, align 8, !tbaa !103
  br label %150

150:                                              ; preds = %140
  %151 = load i32, ptr %25, align 4, !tbaa !37
  %152 = add nsw i32 %151, 1
  store i32 %152, ptr %25, align 4, !tbaa !37
  br label %41, !llvm.loop !243

153:                                              ; preds = %46
  call void @llvm.lifetime.end.p0(i64 4, ptr %24) #12
  call void @llvm.lifetime.end.p0(i64 8, ptr %23) #12
  call void @llvm.lifetime.end.p0(i64 8, ptr %22) #12
  call void @llvm.lifetime.end.p0(i64 8, ptr %21) #12
  ret void
}